target datalayout = "e-m:e-p270:32:32-p271:32:32-p272:64:64-i64:64-i128:128-f80:128-n8:16:32:64-S128"
target triple = "x86_64-pc-linux-gnu"

%struct.IDAMemRec = type { double, ptr, ptr, i32, double, double, ptr, i32, ptr, ptr, i32, ptr, ptr, i32, i32, double, double, ptr, i32, i32, i32, ptr, ptr, i32, ptr, ptr, ptr, i32, double, i32, i32, double, ptr, ptr, i32, ptr, ptr, i32, i32, i32, double, ptr, ptr, [6 x ptr], [6 x double], [6 x double], [6 x double], [6 x double], [6 x double], ptr, ptr, ptr, ptr, ptr, ptr, ptr, ptr, ptr, ptr, ptr, ptr, ptr, ptr, ptr, [6 x ptr], ptr, ptr, ptr, ptr, [6 x ptr], ptr, ptr, ptr, ptr, ptr, ptr, ptr, ptr, ptr, ptr, ptr, ptr, ptr, ptr, [6 x ptr], ptr, ptr, ptr, ptr, ptr, double, ptr, ptr, i32, i32, i32, i32, i32, i32, i32, double, double, double, i32, double, i32, i32, i32, i32, double, double, double, double, double, double, double, double, double, double, double, double, double, double, i32, i32, i32, i32, i32, i64, double, i32, i64, i64, i64, i64, i64, i64, i64, i64, i64, i64, i64, i64, i64, i64, i64, i64, i64, i64, i64, i64, i64, i64, i64, i64, ptr, ptr, ptr, i32, i32, i32, i32, i32, i32, i32, i32, i32, i32, i32, i32, i32, ptr, ptr, ptr, ptr, ptr, ptr, i32, i32, i32, i32, i32, i32, double, double, double, ptr, i32, ptr, ptr, double, double, double, ptr, ptr, ptr, double, double, i32, i32, i64, ptr, i32, i32, ptr, i32 }

@.str = private unnamed_addr constant [5 x i8] c"IDAS\00", align 1
@.str.4 = private unnamed_addr constant [24 x i8] c"ida_mem = NULL illegal.\00", align 1
@.str.10 = private unnamed_addr constant [34 x i8] c"Attempt to call before IDAMalloc.\00", align 1
@.str.11 = private unnamed_addr constant [16 x i8] c"IDASStolerances\00", align 1
@.str.12 = private unnamed_addr constant [18 x i8] c"rtol < 0 illegal.\00", align 1
@.str.13 = private unnamed_addr constant [35 x i8] c"Some atol component < 0.0 illegal.\00", align 1

; Function Attrs: nounwind uwtable
define i32 @IDASStolerances(ptr noundef %0, double noundef %1, double noundef %2) #0 {
  %4 = alloca i32, align 4
  %5 = alloca ptr, align 8
  %6 = alloca double, align 8
  %7 = alloca double, align 8
  %8 = alloca ptr, align 8
  %9 = alloca i32, align 4
  store ptr %0, ptr %5, align 8, !tbaa !91
  store double %1, ptr %6, align 8, !tbaa !92
  store double %2, ptr %7, align 8, !tbaa !92
  call void @llvm.lifetime.start.p0(i64 8, ptr %8) #8
  %10 = load ptr, ptr %5, align 8, !tbaa !91
  %11 = icmp eq ptr %10, null
  br i1 %11, label %12, label %13

12:                                               ; preds = %3
  call void (ptr, i32, ptr, ptr, ptr, ...) @IDAProcessError(ptr noundef null, i32 noundef -20, ptr noundef @.str, ptr noundef @.str.11, ptr noundef @.str.4)
  store i32 -20, ptr %4, align 4
  store i32 1, ptr %9, align 4
  br label %46

13:                                               ; preds = %3
  %14 = load ptr, ptr %5, align 8, !tbaa !91
  store ptr %14, ptr %8, align 8, !tbaa !3
  %15 = load ptr, ptr %8, align 8, !tbaa !3
  %16 = getelementptr inbounds nuw %struct.IDAMemRec, ptr %15, i32 0, i32 162
  %17 = load i32, ptr %16, align 8, !tbaa !78
  %18 = icmp eq i32 %17, 0
  br i1 %18, label %19, label %21

19:                                               ; preds = %13
  %20 = load ptr, ptr %8, align 8, !tbaa !3
  call void (ptr, i32, ptr, ptr, ptr, ...) @IDAProcessError(ptr noundef %20, i32 noundef -23, ptr noundef @.str, ptr noundef @.str.11, ptr noundef @.str.10)
  store i32 -23, ptr %4, align 4
  store i32 1, ptr %9, align 4
  br label %46

21:                                               ; preds = %13
  %22 = load double, ptr %6, align 8, !tbaa !92
  %23 = fcmp olt double %22, 0.000000e+00
  br i1 %23, label %24, label %26

24:                                               ; preds = %21
  %25 = load ptr, ptr %8, align 8, !tbaa !3
  call void (ptr, i32, ptr, ptr, ptr, ...) @IDAProcessError(ptr noundef %25, i32 noundef -22, ptr noundef @.str, ptr noundef @.str.11, ptr noundef @.str.12)
  store i32 -22, ptr %4, align 4
  store i32 1, ptr %9, align 4
  br label %46

26:                                               ; preds = %21
  %27 = load double, ptr %7, align 8, !tbaa !92
  %28 = fcmp olt double %27, 0.000000e+00
  br i1 %28, label %29, label %31

29:                                               ; preds = %26
  %30 = load ptr, ptr %8, align 8, !tbaa !3
  call void (ptr, i32, ptr, ptr, ptr, ...) @IDAProcessError(ptr noundef %30, i32 noundef -22, ptr noundef @.str, ptr noundef @.str.11, ptr noundef @.str.13)
  store i32 -22, ptr %4, align 4
  store i32 1, ptr %9, align 4
  br label %46

31:                                               ; preds = %26
  %32 = load double, ptr %6, align 8, !tbaa !92
  %33 = load ptr, ptr %8, align 8, !tbaa !3
  %34 = getelementptr inbounds nuw %struct.IDAMemRec, ptr %33, i32 0, i32 4
  store double %32, ptr %34, align 8, !tbaa !155
  %35 = load double, ptr %7, align 8, !tbaa !92
  %36 = load ptr, ptr %8, align 8, !tbaa !3
  %37 = getelementptr inbounds nuw %struct.IDAMemRec, ptr %36, i32 0, i32 5
  store double %35, ptr %37, align 8, !tbaa !156
  %38 = load ptr, ptr %8, align 8, !tbaa !3
  %39 = getelementptr inbounds nuw %struct.IDAMemRec, ptr %38, i32 0, i32 3
  store i32 1, ptr %39, align 8, !tbaa !21
  %40 = load ptr, ptr %8, align 8, !tbaa !3
  %41 = getelementptr inbounds nuw %struct.IDAMemRec, ptr %40, i32 0, i32 7
  store i32 0, ptr %41, align 8, !tbaa !22
  %42 = load ptr, ptr %8, align 8, !tbaa !3
  %43 = getelementptr inbounds nuw %struct.IDAMemRec, ptr %42, i32 0, i32 8
  store ptr @IDAEwtSet, ptr %43, align 8, !tbaa !23
  %44 = load ptr, ptr %8, align 8, !tbaa !3
  %45 = getelementptr inbounds nuw %struct.IDAMemRec, ptr %44, i32 0, i32 9
  store ptr null, ptr %45, align 8, !tbaa !24
  store i32 0, ptr %4, align 4
  store i32 1, ptr %9, align 4
  br label %46

46:                                               ; preds = %31, %29, %24, %19, %12
  call void @llvm.lifetime.end.p0(i64 8, ptr %8) #8
  %47 = load i32, ptr %4, align 4
  ret i32 %47
}