; Function Attrs: nounwind uwtable
define range(i32 -23, 1) i32 @IDASStolerances(ptr noundef captures(address_is_null) %0, double noundef %1, double noundef %2) local_unnamed_addr #0 {
  %4 = icmp eq ptr %0, null
  br i1 %4, label %5, label %6

5:                                                ; preds = %3
  tail call void (ptr, i32, ptr, ptr, ptr, ...) @IDAProcessError(ptr noundef null, i32 noundef -20, ptr noundef nonnull @.str, ptr noundef nonnull @.str.11, ptr noundef nonnull @.str.4)
  br label %24

6:                                                ; preds = %3
  %7 = getelementptr inbounds nuw i8, ptr %0, i64 1552
  %8 = load i32, ptr %7, align 8, !tbaa !111
  %9 = icmp eq i32 %8, 0
  br i1 %9, label %10, label %11

10:                                               ; preds = %6
  tail call void (ptr, i32, ptr, ptr, ptr, ...) @IDAProcessError(ptr noundef nonnull %0, i32 noundef -23, ptr noundef nonnull @.str, ptr noundef nonnull @.str.11, ptr noundef nonnull @.str.10)
  br label %24

11:                                               ; preds = %6
  %12 = fcmp olt double %1, 0.000000e+00
  br i1 %12, label %13, label %14

13:                                               ; preds = %11
  tail call void (ptr, i32, ptr, ptr, ptr, ...) @IDAProcessError(ptr noundef nonnull %0, i32 noundef -22, ptr noundef nonnull @.str, ptr noundef nonnull @.str.11, ptr noundef nonnull @.str.12)
  br label %24

14:                                               ; preds = %11
  %15 = fcmp olt double %2, 0.000000e+00
  br i1 %15, label %16, label %17

16:                                               ; preds = %14
  tail call void (ptr, i32, ptr, ptr, ptr, ...) @IDAProcessError(ptr noundef nonnull %0, i32 noundef -22, ptr noundef nonnull @.str, ptr noundef nonnull @.str.11, ptr noundef nonnull @.str.13)
  br label %24

17:                                               ; preds = %14
  %18 = getelementptr inbounds nuw i8, ptr %0, i64 32
  store double %1, ptr %18, align 8, !tbaa !58
  %19 = getelementptr inbounds nuw i8, ptr %0, i64 40
  store double %2, ptr %19, align 8, !tbaa !115
  %20 = getelementptr inbounds nuw i8, ptr %0, i64 24
  store i32 1, ptr %20, align 8, !tbaa !116
  %21 = getelementptr inbounds nuw i8, ptr %0, i64 56
  store i32 0, ptr %21, align 8, !tbaa !117
  %22 = getelementptr inbounds nuw i8, ptr %0, i64 64
  store ptr @IDAEwtSet, ptr %22, align 8, !tbaa !118
  %23 = getelementptr inbounds nuw i8, ptr %0, i64 72
  store ptr null, ptr %23, align 8, !tbaa !119
  br label %24

24:                                               ; preds = %17, %16, %13, %10, %5
  %.0 = phi i32 [ -20, %5 ], [ -23, %10 ], [ -22, %13 ], [ -22, %16 ], [ 0, %17 ]
  ret i32 %.0
}